; Function Attrs: mustprogress uwtable
define hidden void @_ZN3euf6solver11updt_paramsERK10params_ref(ptr noundef nonnull align 8 dereferenceable(9136) %this, ptr noundef nonnull align 8 dereferenceable(8) %p) local_unnamed_addr #3 align 2 {
entry:
  %m_config = getelementptr inbounds i8, ptr %this, i64 824
  tail call void @_ZN10smt_params11updt_paramsERK10params_ref(ptr noundef nonnull align 8 dereferenceable(800) %m_config, ptr noundef nonnull align 8 dereferenceable(8) %p)
  %m_solver.i = getelementptr inbounds i8, ptr %this, i64 24
  %0 = load ptr, ptr %m_solver.i, align 8
  %tobool.not.i = icmp eq ptr %0, null
  br i1 %tobool.not.i, label %_ZN3euf6solver8use_dratEv.exit, label %land.lhs.true.i

land.lhs.true.i:                                  ; preds = %entry
  %m_drat.i = getelementptr inbounds i8, ptr %0, i64 352
  %1 = load i8, ptr %m_drat.i, align 8
  %2 = and i8 %1, 1
  %tobool3.not.i = icmp eq i8 %2, 0
  br i1 %tobool3.not.i, label %_ZN3euf6solver8use_dratEv.exit, label %land.rhs.i

land.rhs.i:                                       ; preds = %land.lhs.true.i
  tail call void @_ZN3euf6solver10init_proofEv(ptr noundef nonnull align 8 dereferenceable(9136) %this)
  br label %_ZN3euf6solver8use_dratEv.exit

_ZN3euf6solver8use_dratEv.exit:                   ; preds = %entry, %land.lhs.true.i, %land.rhs.i
  ret void
}